; Function Attrs: mustprogress nounwind uwtable
define dso_local noundef zeroext i1 @_ZN4llvm14BreakFalseDeps21shouldBreakDependenceEPNS_12MachineInstrEjj(ptr noundef nonnull readonly align 8 captures(none) dereferenceable(496) %0, ptr noundef %1, i32 noundef %2, i32 noundef %3) local_unnamed_addr #0 align 2 {
  %5 = getelementptr inbounds nuw i8, ptr %1, i64 32
  %6 = load ptr, ptr %5, align 8
  %7 = zext i32 %2 to i64
  %8 = getelementptr inbounds nuw %"class.llvm::MachineOperand", ptr %6, i64 %7, i32 1
  %9 = load i32, ptr %8, align 4
  %10 = getelementptr inbounds nuw i8, ptr %0, i64 488
  %11 = load ptr, ptr %10, align 8
  %12 = tail call noundef i32 @_ZNK4llvm19ReachingDefAnalysis12getClearanceEPNS_12MachineInstrENS_10MCRegisterE(ptr noundef nonnull align 8 dereferenceable(444) %11, ptr noundef nonnull %1, i32 %9) #16
  %13 = icmp ugt i32 %3, %12
  ret i1 %13
}